; Function Attrs: mustprogress nounwind uwtable
define internal fastcc noundef zeroext i1 @_ZN12_GLOBAL__N_110MasmParser20parseDirectiveExternEv(ptr noundef nonnull align 8 dereferenceable(1144) %0) unnamed_addr #0 align 2 {
  %2 = alloca %class.anon.563, align 8
  %3 = alloca %"class.llvm::Twine", align 8
  store ptr %0, ptr %2, align 8
  %4 = ptrtoint ptr %2 to i64
  %5 = call noundef zeroext i1 @_ZN4llvm11MCAsmParser9parseManyENS_12function_refIFbvEEEb(ptr noundef nonnull align 8 dereferenceable(34) %0, ptr nonnull @"_ZN4llvm12function_refIFbvEE11callback_fnIZN12_GLOBAL__N_110MasmParser20parseDirectiveExternEvE3$_0EEbl", i64 %4, i1 noundef zeroext true) #24
  br i1 %5, label %6, label %10

6:                                                ; preds = %1
  %7 = getelementptr inbounds nuw i8, ptr %3, i64 32
  %8 = getelementptr inbounds nuw i8, ptr %3, i64 33
  store i8 1, ptr %8, align 1
  store ptr @.str.191, ptr %3, align 8
  store i8 3, ptr %7, align 8
  %9 = call noundef zeroext i1 @_ZN4llvm11MCAsmParser14addErrorSuffixERKNS_5TwineE(ptr noundef nonnull align 8 dereferenceable(34) %0, ptr noundef nonnull align 8 dereferenceable(34) %3) #24
  br label %10

10:                                               ; preds = %1, %6
  %.0 = phi i1 [ %9, %6 ], [ false, %1 ]
  ret i1 %.0
}